; Function Attrs: mustprogress nounwind uwtable
define hidden noundef ptr @_ZN27AssertionPredicatesWithHalt10find_entryEP4Node(ptr noundef %0) local_unnamed_addr #0 align 2 {
  %2 = icmp eq ptr %0, null
  br i1 %2, label %_ZN26AssertionPredicateWithHalt12is_predicateEPK4Node.exit.thread, label %.lr.ph

.lr.ph:                                           ; preds = %1, %39
  %.05 = phi ptr [ %44, %39 ], [ %0, %1 ]
  %3 = getelementptr inbounds i8, ptr %.05, i64 44
  %4 = load i32, ptr %3, align 4
  %5 = and i32 %4, 127
  %6 = icmp eq i32 %5, 72
  br i1 %6, label %7, label %_ZN26AssertionPredicateWithHalt12is_predicateEPK4Node.exit.thread

7:                                                ; preds = %.lr.ph
  %8 = getelementptr inbounds i8, ptr %.05, i64 8
  %9 = load ptr, ptr %8, align 8
  %10 = load ptr, ptr %9, align 8
  %11 = getelementptr inbounds i8, ptr %10, i64 44
  %12 = load i32, ptr %11, align 4
  %13 = and i32 %12, 31
  %14 = icmp eq i32 %13, 21
  br i1 %14, label %15, label %_ZN26AssertionPredicateWithHalt12is_predicateEPK4Node.exit.thread

15:                                               ; preds = %7
  %16 = getelementptr inbounds i8, ptr %10, i64 8
  %17 = load ptr, ptr %16, align 8
  %18 = getelementptr inbounds i8, ptr %17, i64 8
  %19 = load ptr, ptr %18, align 8
  %20 = getelementptr inbounds i8, ptr %19, i64 44
  %21 = load i32, ptr %20, align 4
  %22 = and i32 %21, 262143
  %23 = icmp eq i32 %22, 131072
  %24 = and i32 %21, 524287
  %25 = icmp eq i32 %24, 262144
  %26 = or i1 %23, %25
  br i1 %26, label %27, label %_ZN26AssertionPredicateWithHalt12is_predicateEPK4Node.exit.thread

27:                                               ; preds = %15
  %28 = tail call noundef ptr @_ZNK8ProjNode13other_if_projEv(ptr noundef nonnull align 8 dereferenceable(57) %.05) #8
  %29 = getelementptr inbounds i8, ptr %28, i64 32
  %30 = load i32, ptr %29, align 8
  %31 = icmp eq i32 %30, 1
  br i1 %31, label %_ZN26AssertionPredicateWithHalt12is_predicateEPK4Node.exit, label %_ZN26AssertionPredicateWithHalt12is_predicateEPK4Node.exit.thread

_ZN26AssertionPredicateWithHalt12is_predicateEPK4Node.exit: ; preds = %27
  %32 = getelementptr inbounds i8, ptr %28, i64 16
  %33 = load ptr, ptr %32, align 8
  %34 = load ptr, ptr %33, align 8
  %35 = load ptr, ptr %34, align 8
  %36 = load ptr, ptr %35, align 8
  %37 = tail call noundef i32 %36(ptr noundef nonnull align 8 dereferenceable(52) %34) #8
  %38 = icmp eq i32 %37, 175
  br i1 %38, label %39, label %_ZN26AssertionPredicateWithHalt12is_predicateEPK4Node.exit.thread

39:                                               ; preds = %_ZN26AssertionPredicateWithHalt12is_predicateEPK4Node.exit
  %40 = load ptr, ptr %8, align 8
  %41 = load ptr, ptr %40, align 8
  %42 = getelementptr inbounds i8, ptr %41, i64 8
  %43 = load ptr, ptr %42, align 8
  %44 = load ptr, ptr %43, align 8
  %45 = icmp eq ptr %44, null
  br i1 %45, label %_ZN26AssertionPredicateWithHalt12is_predicateEPK4Node.exit.thread, label %.lr.ph, !llvm.loop !6

_ZN26AssertionPredicateWithHalt12is_predicateEPK4Node.exit.thread: ; preds = %_ZN26AssertionPredicateWithHalt12is_predicateEPK4Node.exit, %7, %.lr.ph, %39, %15, %27, %1
  %.0.lcssa = phi ptr [ null, %1 ], [ %.05, %27 ], [ %.05, %15 ], [ null, %39 ], [ %.05, %.lr.ph ], [ %.05, %7 ], [ %.05, %_ZN26AssertionPredicateWithHalt12is_predicateEPK4Node.exit ]
  ret ptr %.0.lcssa
}